target datalayout = "e-m:e-p270:32:32-p271:32:32-p272:64:64-i64:64-i128:128-f80:128-n8:16:32:64-S128"
target triple = "x86_64-pc-linux-gnu"

@.str.99 = private unnamed_addr constant [27 x i8] c"ITU-T Recommendation H.223\00", align 1
@.str.100 = private unnamed_addr constant [6 x i8] c"H.223\00", align 1
@.str.101 = private unnamed_addr constant [5 x i8] c"h223\00", align 1
@proto_h223 = internal global i32 0, align 4
@.str.102 = private unnamed_addr constant [40 x i8] c"ITU-T Recommendation H.223 (Bitswapped)\00", align 1
@.str.103 = private unnamed_addr constant [19 x i8] c"H.223 (Bitswapped)\00", align 1
@.str.104 = private unnamed_addr constant [16 x i8] c"h223_bitswapped\00", align 1
@proto_h223_bitswapped = internal global i32 0, align 4
@h223_bitswapped = internal global ptr null, align 8
@circuit_chain_hashtable = internal global ptr null, align 8

; Function Attrs: nounwind uwtable
define hidden void @proto_register_h223() #0 {
  %1 = alloca ptr, align 8
  %2 = call i32 @proto_register_protocol(ptr noundef @.str.99, ptr noundef @.str.100, ptr noundef @.str.101)
  store i32 %2, ptr @proto_h223, align 4
  %3 = load i32, ptr @proto_h223, align 4
  %4 = call i32 @proto_register_protocol_in_name_only(ptr noundef @.str.102, ptr noundef @.str.103, ptr noundef @.str.104, i32 noundef %3, i32 noundef 1)
  store i32 %4, ptr @proto_h223_bitswapped, align 4
  %5 = load i32, ptr @proto_h223, align 4
  call void @proto_register_field_array(i32 noundef %5, ptr noundef @proto_register_h223.hf, i32 noundef 40)
  call void @proto_register_subtree_array(ptr noundef @proto_register_h223.ett, i32 noundef 15)
  %6 = load i32, ptr @proto_h223, align 4
  %7 = call ptr @expert_register_protocol(i32 noundef %6)
  store ptr %7, ptr %1, align 8
  %8 = load ptr, ptr %1, align 8
  call void @expert_register_field_array(ptr noundef %8, ptr noundef @proto_register_h223.ei, i32 noundef 1)
  %9 = load i32, ptr @proto_h223, align 4
  %10 = call ptr @register_dissector(ptr noundef @.str.101, ptr noundef @dissect_h223_circuit_data, i32 noundef %9)
  %11 = load i32, ptr @proto_h223_bitswapped, align 4
  %12 = call ptr @register_dissector(ptr noundef @.str.104, ptr noundef @dissect_h223_bitswapped, i32 noundef %11)
  store ptr %12, ptr @h223_bitswapped, align 8
  call void @register_init_routine(ptr noundef @circuit_chain_init)
  %13 = call ptr @wmem_epan_scope()
  %14 = call ptr @wmem_file_scope()
  %15 = call noalias ptr @wmem_map_new_autoreset(ptr noundef %13, ptr noundef %14, ptr noundef @circuit_chain_hash, ptr noundef @circuit_chain_equal)
  store ptr %15, ptr @circuit_chain_hashtable, align 8
  call void @h245_set_h223_set_mc_handle(ptr noundef @h223_set_mc)
  call void @h245_set_h223_add_lc_handle(ptr noundef @h223_add_lc)
  ret void
}