; Function Attrs: nounwind uwtable
define hidden void @proto_register_h223() local_unnamed_addr #0 {
  %1 = tail call i32 @proto_register_protocol(ptr noundef nonnull @.str.99, ptr noundef nonnull @.str.100, ptr noundef nonnull @.str.101) #12
  store i32 %1, ptr @proto_h223, align 4
  %2 = tail call i32 @proto_register_protocol_in_name_only(ptr noundef nonnull @.str.102, ptr noundef nonnull @.str.103, ptr noundef nonnull @.str.104, i32 noundef %1, i32 noundef 1) #12
  store i32 %2, ptr @proto_h223_bitswapped, align 4
  %3 = load i32, ptr @proto_h223, align 4
  tail call void @proto_register_field_array(i32 noundef %3, ptr noundef nonnull @proto_register_h223.hf, i32 noundef 40) #12
  tail call void @proto_register_subtree_array(ptr noundef nonnull @proto_register_h223.ett, i32 noundef 15) #12
  %4 = load i32, ptr @proto_h223, align 4
  %5 = tail call ptr @expert_register_protocol(i32 noundef %4) #12
  tail call void @expert_register_field_array(ptr noundef %5, ptr noundef nonnull @proto_register_h223.ei, i32 noundef 1) #12
  %6 = load i32, ptr @proto_h223, align 4
  %7 = tail call ptr @register_dissector(ptr noundef nonnull @.str.101, ptr noundef nonnull @dissect_h223_circuit_data, i32 noundef %6) #12
  %8 = load i32, ptr @proto_h223_bitswapped, align 4
  %9 = tail call ptr @register_dissector(ptr noundef nonnull @.str.104, ptr noundef nonnull @dissect_h223_bitswapped, i32 noundef %8) #12
  store ptr %9, ptr @h223_bitswapped, align 8
  tail call void @register_init_routine(ptr noundef nonnull @circuit_chain_init) #12
  %10 = tail call ptr @wmem_epan_scope() #12
  %11 = tail call ptr @wmem_file_scope() #12
  %12 = tail call noalias ptr @wmem_map_new_autoreset(ptr noundef %10, ptr noundef %11, ptr noundef nonnull @circuit_chain_hash, ptr noundef nonnull @circuit_chain_equal) #12
  store ptr %12, ptr @circuit_chain_hashtable, align 8
  tail call void @h245_set_h223_set_mc_handle(ptr noundef nonnull @h223_set_mc) #12
  tail call void @h245_set_h223_add_lc_handle(ptr noundef nonnull @h223_add_lc) #12
  ret void
}